target datalayout = "e-m:e-p270:32:32-p271:32:32-p272:64:64-i64:64-i128:128-f80:128-n8:16:32:64-S128"
target triple = "x86_64-pc-linux-gnu"

; Function Attrs: null_pointer_is_valid sspstrong uwtable
define internal i32 @AES_unwrap(ptr noundef %0, i16 noundef zeroext %1, ptr noundef %2, i16 noundef zeroext %3, ptr noundef %4, ptr noundef %5) #0 {
  %7 = alloca i32, align 4
  %8 = alloca ptr, align 8
  %9 = alloca i16, align 2
  %10 = alloca ptr, align 8
  %11 = alloca i16, align 2
  %12 = alloca ptr, align 8
  %13 = alloca ptr, align 8
  %14 = alloca ptr, align 8
  %15 = alloca i32, align 4
  store ptr %0, ptr %8, align 8
  store i16 %1, ptr %9, align 2
  store ptr %2, ptr %10, align 8
  store i16 %3, ptr %11, align 2
  store ptr %4, ptr %12, align 8
  store ptr %5, ptr %13, align 8
  call void @llvm.lifetime.start.p0(i64 8, ptr %14) #16
  %16 = load ptr, ptr %8, align 8
  %17 = icmp eq ptr %16, null
  br i1 %17, label %25, label %18

18:                                               ; preds = %6
  %19 = load i16, ptr %11, align 2
  %20 = zext i16 %19 to i32
  %21 = icmp slt i32 %20, 16
  br i1 %21, label %25, label %22

22:                                               ; preds = %18
  %23 = load ptr, ptr %10, align 8
  %24 = icmp eq ptr %23, null
  br i1 %24, label %25, label %26

25:                                               ; preds = %22, %18, %6
  store i32 1, ptr %7, align 4
  store i32 1, ptr %15, align 4
  br label %60

26:                                               ; preds = %22
  %27 = call i32 @gcry_cipher_open(ptr noundef %14, i32 noundef 7, i32 noundef 7, i32 noundef 0)
  %28 = icmp ne i32 %27, 0
  br i1 %28, label %29, label %30

29:                                               ; preds = %26
  store i32 1, ptr %7, align 4
  store i32 1, ptr %15, align 4
  br label %60

30:                                               ; preds = %26
  %31 = load ptr, ptr %14, align 8
  %32 = load ptr, ptr %8, align 8
  %33 = load i16, ptr %9, align 2
  %34 = zext i16 %33 to i64
  %35 = call i32 @gcry_cipher_setkey(ptr noundef %31, ptr noundef %32, i64 noundef %34)
  %36 = icmp ne i32 %35, 0
  br i1 %36, label %37, label %39

37:                                               ; preds = %30
  %38 = load ptr, ptr %14, align 8
  call void @gcry_cipher_close(ptr noundef %38)
  store i32 1, ptr %7, align 4
  store i32 1, ptr %15, align 4
  br label %60

39:                                               ; preds = %30
  %40 = load ptr, ptr %14, align 8
  %41 = load ptr, ptr %12, align 8
  %42 = load i16, ptr %11, align 2
  %43 = zext i16 %42 to i32
  %44 = sub i32 %43, 8
  %45 = sext i32 %44 to i64
  %46 = load ptr, ptr %10, align 8
  %47 = load i16, ptr %11, align 2
  %48 = zext i16 %47 to i64
  %49 = call i32 @gcry_cipher_decrypt(ptr noundef %40, ptr noundef %41, i64 noundef %45, ptr noundef %46, i64 noundef %48)
  %50 = icmp ne i32 %49, 0
  br i1 %50, label %51, label %53

51:                                               ; preds = %39
  %52 = load ptr, ptr %14, align 8
  call void @gcry_cipher_close(ptr noundef %52)
  store i32 1, ptr %7, align 4
  store i32 1, ptr %15, align 4
  br label %60

53:                                               ; preds = %39
  %54 = load i16, ptr %11, align 2
  %55 = zext i16 %54 to i32
  %56 = sub i32 %55, 8
  %57 = trunc i32 %56 to i16
  %58 = load ptr, ptr %13, align 8
  store i16 %57, ptr %58, align 2
  %59 = load ptr, ptr %14, align 8
  call void @gcry_cipher_close(ptr noundef %59)
  store i32 0, ptr %7, align 4
  store i32 1, ptr %15, align 4
  br label %60

60:                                               ; preds = %53, %51, %37, %29, %25
  call void @llvm.lifetime.end.p0(i64 8, ptr %14) #16
  %61 = load i32, ptr %7, align 4
  ret i32 %61
}