; Function Attrs: null_pointer_is_valid sspstrong uwtable
define internal fastcc range(i32 0, 2) i32 @AES_unwrap(ptr noundef %0, i16 noundef zeroext range(i16 0, 33) %1, ptr noundef %2, i16 noundef zeroext %3, ptr noundef %4, ptr noundef writeonly captures(none) %5) unnamed_addr #0 {
  %7 = alloca ptr, align 8
  call void @llvm.lifetime.start.p0(i64 8, ptr nonnull %7) #15
  %8 = icmp eq ptr %0, null
  %9 = zext i16 %3 to i32
  %10 = icmp ult i16 %3, 16
  %or.cond = or i1 %8, %10
  %11 = icmp eq ptr %2, null
  %or.cond4 = or i1 %11, %or.cond
  br i1 %or.cond4, label %29, label %12

12:                                               ; preds = %6
  %13 = call i32 @gcry_cipher_open(ptr noundef nonnull %7, i32 noundef 7, i32 noundef 7, i32 noundef 0)
  %.not = icmp eq i32 %13, 0
  br i1 %.not, label %14, label %29

14:                                               ; preds = %12
  %15 = load ptr, ptr %7, align 8
  %16 = zext nneg i16 %1 to i64
  %17 = call i32 @gcry_cipher_setkey(ptr noundef %15, ptr noundef nonnull %0, i64 noundef %16)
  %.not18 = icmp eq i32 %17, 0
  %18 = load ptr, ptr %7, align 8
  br i1 %.not18, label %19, label %.sink.split

19:                                               ; preds = %14
  %20 = add nsw i32 %9, -8
  %21 = zext nneg i32 %20 to i64
  %22 = zext i16 %3 to i64
  %23 = call i32 @gcry_cipher_decrypt(ptr noundef %18, ptr noundef %4, i64 noundef %21, ptr noundef nonnull %2, i64 noundef %22)
  %.not19 = icmp eq i32 %23, 0
  br i1 %.not19, label %26, label %24

24:                                               ; preds = %19
  %25 = load ptr, ptr %7, align 8
  br label %.sink.split

26:                                               ; preds = %19
  %27 = trunc nuw i32 %20 to i16
  store i16 %27, ptr %5, align 2
  %28 = load ptr, ptr %7, align 8
  br label %.sink.split

.sink.split:                                      ; preds = %14, %24, %26
  %.sink = phi ptr [ %28, %26 ], [ %25, %24 ], [ %18, %14 ]
  %.0.ph = phi i32 [ 0, %26 ], [ 1, %24 ], [ 1, %14 ]
  call void @gcry_cipher_close(ptr noundef %.sink)
  br label %29

29:                                               ; preds = %.sink.split, %12, %6
  %.0 = phi i32 [ 1, %6 ], [ 1, %12 ], [ %.0.ph, %.sink.split ]
  call void @llvm.lifetime.end.p0(i64 8, ptr nonnull %7) #15
  ret i32 %.0
}